target datalayout = "e-m:e-p270:32:32-p271:32:32-p272:64:64-i64:64-i128:128-f80:128-n8:16:32:64-S128"
target triple = "x86_64-pc-linux-gnu"

@.str.5 = private unnamed_addr constant [33 x i8] c"../openssl/test/quic_wire_test.c\00", align 1
@.str.55 = private unnamed_addr constant [7 x i8] c"0x1234\00", align 1
@.str.81 = private unnamed_addr constant [7 x i8] c"0x9781\00", align 1
@encode_case_22_data = internal constant [5 x i8] c"Uw2F\99", align 1
@encode_case_22_dec.data = internal constant [2 x i8] c"3D", align 1
@.str.145 = private unnamed_addr constant [46 x i8] c"ossl_quic_wire_peek_transport_param(pkt, &id)\00", align 1
@.str.146 = private unnamed_addr constant [22 x i8] c"fail < 0 || fail >= 2\00", align 1
@.str.147 = private unnamed_addr constant [3 x i8] c"id\00", align 1
@.str.148 = private unnamed_addr constant [2 x i8] c"p\00", align 1
@.str.149 = private unnamed_addr constant [20 x i8] c"encode_case_22_data\00", align 1
@.str.150 = private unnamed_addr constant [23 x i8] c"fail < 0 || fail >= 12\00", align 1
@.str.151 = private unnamed_addr constant [5 x i8] c"data\00", align 1

; Function Attrs: nounwind uwtable
define internal i32 @encode_case_22_dec(ptr noundef %0, i64 noundef %1) #0 {
  %3 = alloca i32, align 4
  %4 = alloca ptr, align 8
  %5 = alloca i64, align 8
  %6 = alloca i64, align 8
  %7 = alloca i64, align 8
  %8 = alloca ptr, align 8
  %9 = alloca i32, align 4
  store ptr %0, ptr %4, align 8, !tbaa !40
  store i64 %1, ptr %5, align 8, !tbaa !19
  call void @llvm.lifetime.start.p0(i64 8, ptr %6) #5
  store i64 0, ptr %6, align 8, !tbaa !19
  call void @llvm.lifetime.start.p0(i64 8, ptr %7) #5
  store i64 0, ptr %7, align 8, !tbaa !19
  call void @llvm.lifetime.start.p0(i64 8, ptr %8) #5
  %10 = load ptr, ptr %4, align 8, !tbaa !40
  %11 = call i32 @ossl_quic_wire_peek_transport_param(ptr noundef %10, ptr noundef %6)
  %12 = load i64, ptr %5, align 8, !tbaa !19
  %13 = icmp slt i64 %12, 0
  br i1 %13, label %17, label %14

14:                                               ; preds = %2
  %15 = load i64, ptr %5, align 8, !tbaa !19
  %16 = icmp sge i64 %15, 2
  br label %17

17:                                               ; preds = %14, %2
  %18 = phi i1 [ true, %2 ], [ %16, %14 ]
  %19 = zext i1 %18 to i32
  %20 = call i32 @test_int_eq(ptr noundef @.str.5, i32 noundef 1068, ptr noundef @.str.145, ptr noundef @.str.146, i32 noundef %11, i32 noundef %19)
  %21 = icmp ne i32 %20, 0
  br i1 %21, label %23, label %22

22:                                               ; preds = %17
  store i32 0, ptr %3, align 4
  store i32 1, ptr %9, align 4
  br label %152

23:                                               ; preds = %17
  %24 = load i64, ptr %5, align 8, !tbaa !19
  %25 = icmp slt i64 %24, 0
  br i1 %25, label %29, label %26

26:                                               ; preds = %23
  %27 = load i64, ptr %5, align 8, !tbaa !19
  %28 = icmp sge i64 %27, 2
  br i1 %28, label %29, label %34

29:                                               ; preds = %26, %23
  %30 = load i64, ptr %6, align 8, !tbaa !19
  %31 = call i32 @test_uint64_t_eq(ptr noundef @.str.5, i32 noundef 1072, ptr noundef @.str.147, ptr noundef @.str.55, i64 noundef %30, i64 noundef 4660)
  %32 = icmp ne i32 %31, 0
  br i1 %32, label %34, label %33

33:                                               ; preds = %29
  store i32 0, ptr %3, align 4
  store i32 1, ptr %9, align 4
  br label %152

34:                                               ; preds = %29, %26
  store i64 0, ptr %6, align 8, !tbaa !19
  %35 = load ptr, ptr %4, align 8, !tbaa !40
  %36 = call ptr @ossl_quic_wire_decode_transport_param_bytes(ptr noundef %35, ptr noundef %6, ptr noundef %7)
  store ptr %36, ptr %8, align 8, !tbaa !39
  %37 = load i64, ptr %5, align 8, !tbaa !19
  %38 = icmp slt i64 %37, 0
  br i1 %38, label %42, label %39

39:                                               ; preds = %34
  %40 = load i64, ptr %5, align 8, !tbaa !19
  %41 = icmp sge i64 %40, 8
  br i1 %41, label %42, label %48

42:                                               ; preds = %39, %34
  %43 = load ptr, ptr %8, align 8, !tbaa !39
  %44 = call i32 @test_ptr(ptr noundef @.str.5, i32 noundef 1079, ptr noundef @.str.148, ptr noundef %43)
  %45 = icmp ne i32 %44, 0
  br i1 %45, label %47, label %46

46:                                               ; preds = %42
  store i32 0, ptr %3, align 4
  store i32 1, ptr %9, align 4
  br label %152

47:                                               ; preds = %42
  br label %54

48:                                               ; preds = %39
  %49 = load ptr, ptr %8, align 8, !tbaa !39
  %50 = call i32 @test_ptr_null(ptr noundef @.str.5, i32 noundef 1082, ptr noundef @.str.148, ptr noundef %49)
  %51 = icmp ne i32 %50, 0
  br i1 %51, label %53, label %52

52:                                               ; preds = %48
  store i32 0, ptr %3, align 4
  store i32 1, ptr %9, align 4
  br label %152

53:                                               ; preds = %48
  br label %54

54:                                               ; preds = %53, %47
  %55 = load i64, ptr %5, align 8, !tbaa !19
  %56 = icmp slt i64 %55, 0
  br i1 %56, label %60, label %57

57:                                               ; preds = %54
  %58 = load i64, ptr %5, align 8, !tbaa !19
  %59 = icmp sge i64 %58, 8
  br i1 %59, label %60, label %65

60:                                               ; preds = %57, %54
  %61 = load i64, ptr %6, align 8, !tbaa !19
  %62 = call i32 @test_uint64_t_eq(ptr noundef @.str.5, i32 noundef 1087, ptr noundef @.str.147, ptr noundef @.str.55, i64 noundef %61, i64 noundef 4660)
  %63 = icmp ne i32 %62, 0
  br i1 %63, label %65, label %64

64:                                               ; preds = %60
  store i32 0, ptr %3, align 4
  store i32 1, ptr %9, align 4
  br label %152

65:                                               ; preds = %60, %57
  %66 = load i64, ptr %5, align 8, !tbaa !19
  %67 = icmp slt i64 %66, 0
  br i1 %67, label %71, label %68

68:                                               ; preds = %65
  %69 = load i64, ptr %5, align 8, !tbaa !19
  %70 = icmp sge i64 %69, 8
  br i1 %70, label %71, label %77

71:                                               ; preds = %68, %65
  %72 = load ptr, ptr %8, align 8, !tbaa !39
  %73 = load i64, ptr %7, align 8, !tbaa !19
  %74 = call i32 @test_mem_eq(ptr noundef @.str.5, i32 noundef 1091, ptr noundef @.str.148, ptr noundef @.str.149, ptr noundef %72, i64 noundef %73, ptr noundef @encode_case_22_data, i64 noundef 5)
  %75 = icmp ne i32 %74, 0
  br i1 %75, label %77, label %76

76:                                               ; preds = %71
  store i32 0, ptr %3, align 4
  store i32 1, ptr %9, align 4
  br label %152

77:                                               ; preds = %71, %68
  %78 = load i64, ptr %5, align 8, !tbaa !19
  %79 = icmp slt i64 %78, 0
  br i1 %79, label %83, label %80

80:                                               ; preds = %77
  %81 = load i64, ptr %5, align 8, !tbaa !19
  %82 = icmp sge i64 %81, 8
  br i1 %82, label %83, label %97

83:                                               ; preds = %80, %77
  %84 = load ptr, ptr %4, align 8, !tbaa !40
  %85 = call i32 @ossl_quic_wire_peek_transport_param(ptr noundef %84, ptr noundef %6)
  %86 = load i64, ptr %5, align 8, !tbaa !19
  %87 = icmp slt i64 %86, 0
  br i1 %87, label %91, label %88

88:                                               ; preds = %83
  %89 = load i64, ptr %5, align 8, !tbaa !19
  %90 = icmp sge i64 %89, 12
  br label %91

91:                                               ; preds = %88, %83
  %92 = phi i1 [ true, %83 ], [ %90, %88 ]
  %93 = zext i1 %92 to i32
  %94 = call i32 @test_int_eq(ptr noundef @.str.5, i32 noundef 1096, ptr noundef @.str.145, ptr noundef @.str.150, i32 noundef %85, i32 noundef %93)
  %95 = icmp ne i32 %94, 0
  br i1 %95, label %97, label %96

96:                                               ; preds = %91
  store i32 0, ptr %3, align 4
  store i32 1, ptr %9, align 4
  br label %152

97:                                               ; preds = %91, %80
  %98 = load i64, ptr %5, align 8, !tbaa !19
  %99 = icmp slt i64 %98, 0
  br i1 %99, label %103, label %100

100:                                              ; preds = %97
  %101 = load i64, ptr %5, align 8, !tbaa !19
  %102 = icmp sge i64 %101, 12
  br i1 %102, label %103, label %108

103:                                              ; preds = %100, %97
  %104 = load i64, ptr %6, align 8, !tbaa !19
  %105 = call i32 @test_uint64_t_eq(ptr noundef @.str.5, i32 noundef 1100, ptr noundef @.str.147, ptr noundef @.str.81, i64 noundef %104, i64 noundef 38785)
  %106 = icmp ne i32 %105, 0
  br i1 %106, label %108, label %107

107:                                              ; preds = %103
  store i32 0, ptr %3, align 4
  store i32 1, ptr %9, align 4
  br label %152

108:                                              ; preds = %103, %100
  store i64 0, ptr %6, align 8, !tbaa !19
  %109 = load ptr, ptr %4, align 8, !tbaa !40
  %110 = call ptr @ossl_quic_wire_decode_transport_param_bytes(ptr noundef %109, ptr noundef %6, ptr noundef %7)
  store ptr %110, ptr %8, align 8, !tbaa !39
  %111 = load i64, ptr %5, align 8, !tbaa !19
  %112 = icmp slt i64 %111, 0
  br i1 %112, label %116, label %113

113:                                              ; preds = %108
  %114 = load i64, ptr %5, align 8, !tbaa !19
  %115 = icmp sge i64 %114, 15
  br i1 %115, label %116, label %122

116:                                              ; preds = %113, %108
  %117 = load ptr, ptr %8, align 8, !tbaa !39
  %118 = call i32 @test_ptr(ptr noundef @.str.5, i32 noundef 1107, ptr noundef @.str.148, ptr noundef %117)
  %119 = icmp ne i32 %118, 0
  br i1 %119, label %121, label %120

120:                                              ; preds = %116
  store i32 0, ptr %3, align 4
  store i32 1, ptr %9, align 4
  br label %152

121:                                              ; preds = %116
  br label %128

122:                                              ; preds = %113
  %123 = load ptr, ptr %8, align 8, !tbaa !39
  %124 = call i32 @test_ptr_null(ptr noundef @.str.5, i32 noundef 1110, ptr noundef @.str.148, ptr noundef %123)
  %125 = icmp ne i32 %124, 0
  br i1 %125, label %127, label %126

126:                                              ; preds = %122
  store i32 0, ptr %3, align 4
  store i32 1, ptr %9, align 4
  br label %152

127:                                              ; preds = %122
  br label %128

128:                                              ; preds = %127, %121
  %129 = load i64, ptr %5, align 8, !tbaa !19
  %130 = icmp slt i64 %129, 0
  br i1 %130, label %134, label %131

131:                                              ; preds = %128
  %132 = load i64, ptr %5, align 8, !tbaa !19
  %133 = icmp sge i64 %132, 15
  br i1 %133, label %134, label %139

134:                                              ; preds = %131, %128
  %135 = load i64, ptr %6, align 8, !tbaa !19
  %136 = call i32 @test_uint64_t_eq(ptr noundef @.str.5, i32 noundef 1115, ptr noundef @.str.147, ptr noundef @.str.81, i64 noundef %135, i64 noundef 38785)
  %137 = icmp ne i32 %136, 0
  br i1 %137, label %139, label %138

138:                                              ; preds = %134
  store i32 0, ptr %3, align 4
  store i32 1, ptr %9, align 4
  br label %152

139:                                              ; preds = %134, %131
  %140 = load i64, ptr %5, align 8, !tbaa !19
  %141 = icmp slt i64 %140, 0
  br i1 %141, label %145, label %142

142:                                              ; preds = %139
  %143 = load i64, ptr %5, align 8, !tbaa !19
  %144 = icmp sge i64 %143, 15
  br i1 %144, label %145, label %151

145:                                              ; preds = %142, %139
  %146 = load ptr, ptr %8, align 8, !tbaa !39
  %147 = load i64, ptr %7, align 8, !tbaa !19
  %148 = call i32 @test_mem_eq(ptr noundef @.str.5, i32 noundef 1119, ptr noundef @.str.148, ptr noundef @.str.151, ptr noundef %146, i64 noundef %147, ptr noundef @encode_case_22_dec.data, i64 noundef 2)
  %149 = icmp ne i32 %148, 0
  br i1 %149, label %151, label %150

150:                                              ; preds = %145
  store i32 0, ptr %3, align 4
  store i32 1, ptr %9, align 4
  br label %152

151:                                              ; preds = %145, %142
  store i32 1, ptr %3, align 4
  store i32 1, ptr %9, align 4
  br label %152

152:                                              ; preds = %151, %150, %138, %126, %120, %107, %96, %76, %64, %52, %46, %33, %22
  call void @llvm.lifetime.end.p0(i64 8, ptr %8) #5
  call void @llvm.lifetime.end.p0(i64 8, ptr %7) #5
  call void @llvm.lifetime.end.p0(i64 8, ptr %6) #5
  %153 = load i32, ptr %3, align 4
  ret i32 %153
}