; Function Attrs: nounwind uwtable
define internal range(i32 0, 2) i32 @encode_case_22_dec(ptr noundef %0, i64 noundef %1) #0 {
  %3 = alloca i64, align 8
  %4 = alloca i64, align 8
  call void @llvm.lifetime.start.p0(i64 8, ptr nonnull %3) #4
  store i64 0, ptr %3, align 8, !tbaa !13
  call void @llvm.lifetime.start.p0(i64 8, ptr nonnull %4) #4
  store i64 0, ptr %4, align 8, !tbaa !13
  %5 = call i32 @ossl_quic_wire_peek_transport_param(ptr noundef %0, ptr noundef nonnull %3) #4
  %6 = icmp ugt i64 %1, 1
  %7 = zext i1 %6 to i32
  %8 = call i32 @test_int_eq(ptr noundef nonnull @.str.5, i32 noundef 1068, ptr noundef nonnull @.str.145, ptr noundef nonnull @.str.146, i32 noundef %5, i32 noundef %7) #4
  %.not = icmp eq i32 %8, 0
  br i1 %.not, label %47, label %9

9:                                                ; preds = %2
  br i1 %6, label %11, label %.thread

.thread:                                          ; preds = %9
  store i64 0, ptr %3, align 8, !tbaa !13
  %10 = call ptr @ossl_quic_wire_decode_transport_param_bytes(ptr noundef %0, ptr noundef nonnull %3, ptr noundef nonnull %4) #4
  br label %18

11:                                               ; preds = %9
  %12 = load i64, ptr %3, align 8, !tbaa !13
  %13 = call i32 @test_uint64_t_eq(ptr noundef nonnull @.str.5, i32 noundef 1072, ptr noundef nonnull @.str.147, ptr noundef nonnull @.str.55, i64 noundef %12, i64 noundef 4660) #4
  %.not49 = icmp eq i32 %13, 0
  br i1 %.not49, label %47, label %14

14:                                               ; preds = %11
  store i64 0, ptr %3, align 8, !tbaa !13
  %15 = call ptr @ossl_quic_wire_decode_transport_param_bytes(ptr noundef %0, ptr noundef nonnull %3, ptr noundef nonnull %4) #4
  %or.cond3 = icmp ugt i64 %1, 7
  br i1 %or.cond3, label %16, label %18

16:                                               ; preds = %14
  %17 = call i32 @test_ptr(ptr noundef nonnull @.str.5, i32 noundef 1079, ptr noundef nonnull @.str.148, ptr noundef %15) #4
  %.not51 = icmp eq i32 %17, 0
  br i1 %.not51, label %47, label %21

18:                                               ; preds = %.thread, %14
  %19 = phi ptr [ %10, %.thread ], [ %15, %14 ]
  %20 = call i32 @test_ptr_null(ptr noundef nonnull @.str.5, i32 noundef 1082, ptr noundef nonnull @.str.148, ptr noundef %19) #4
  %.not50 = icmp eq i32 %20, 0
  br i1 %.not50, label %47, label %.thread69

21:                                               ; preds = %16
  %22 = load i64, ptr %3, align 8, !tbaa !13
  %23 = call i32 @test_uint64_t_eq(ptr noundef nonnull @.str.5, i32 noundef 1087, ptr noundef nonnull @.str.147, ptr noundef nonnull @.str.55, i64 noundef %22, i64 noundef 4660) #4
  %.not52 = icmp eq i32 %23, 0
  br i1 %.not52, label %47, label %24

24:                                               ; preds = %21
  %25 = load i64, ptr %4, align 8, !tbaa !13
  %26 = call i32 @test_mem_eq(ptr noundef nonnull @.str.5, i32 noundef 1091, ptr noundef nonnull @.str.148, ptr noundef nonnull @.str.149, ptr noundef %15, i64 noundef %25, ptr noundef nonnull @encode_case_22_data, i64 noundef 5) #4
  %.not53 = icmp eq i32 %26, 0
  br i1 %.not53, label %47, label %.critedge

.critedge:                                        ; preds = %24
  %27 = call i32 @ossl_quic_wire_peek_transport_param(ptr noundef %0, ptr noundef nonnull %3) #4
  %28 = icmp ugt i64 %1, 11
  %29 = zext i1 %28 to i32
  %30 = call i32 @test_int_eq(ptr noundef nonnull @.str.5, i32 noundef 1096, ptr noundef nonnull @.str.145, ptr noundef nonnull @.str.150, i32 noundef %27, i32 noundef %29) #4
  %.not54 = icmp eq i32 %30, 0
  br i1 %.not54, label %47, label %.critedge60

.critedge60:                                      ; preds = %.critedge
  br i1 %28, label %31, label %.thread69

31:                                               ; preds = %.critedge60
  %32 = load i64, ptr %3, align 8, !tbaa !13
  %33 = call i32 @test_uint64_t_eq(ptr noundef nonnull @.str.5, i32 noundef 1100, ptr noundef nonnull @.str.147, ptr noundef nonnull @.str.81, i64 noundef %32, i64 noundef 38785) #4
  %.not55 = icmp eq i32 %33, 0
  br i1 %.not55, label %47, label %35

.thread69:                                        ; preds = %.critedge60, %18
  store i64 0, ptr %3, align 8, !tbaa !13
  %34 = call ptr @ossl_quic_wire_decode_transport_param_bytes(ptr noundef %0, ptr noundef nonnull %3, ptr noundef nonnull %4) #4
  br label %39

35:                                               ; preds = %31
  store i64 0, ptr %3, align 8, !tbaa !13
  %36 = call ptr @ossl_quic_wire_decode_transport_param_bytes(ptr noundef %0, ptr noundef nonnull %3, ptr noundef nonnull %4) #4
  %or.cond13 = icmp ugt i64 %1, 14
  br i1 %or.cond13, label %37, label %39

37:                                               ; preds = %35
  %38 = call i32 @test_ptr(ptr noundef nonnull @.str.5, i32 noundef 1107, ptr noundef nonnull @.str.148, ptr noundef %36) #4
  %.not57 = icmp eq i32 %38, 0
  br i1 %.not57, label %47, label %.thread73

39:                                               ; preds = %.thread69, %35
  %40 = phi ptr [ %34, %.thread69 ], [ %36, %35 ]
  %41 = call i32 @test_ptr_null(ptr noundef nonnull @.str.5, i32 noundef 1110, ptr noundef nonnull @.str.148, ptr noundef %40) #4
  %.not56 = icmp eq i32 %41, 0
  br i1 %.not56, label %47, label %.critedge62

.thread73:                                        ; preds = %37
  %42 = load i64, ptr %3, align 8, !tbaa !13
  %43 = call i32 @test_uint64_t_eq(ptr noundef nonnull @.str.5, i32 noundef 1115, ptr noundef nonnull @.str.147, ptr noundef nonnull @.str.81, i64 noundef %42, i64 noundef 38785) #4
  %.not58 = icmp eq i32 %43, 0
  br i1 %.not58, label %47, label %44

44:                                               ; preds = %.thread73
  %45 = load i64, ptr %4, align 8, !tbaa !13
  %46 = call i32 @test_mem_eq(ptr noundef nonnull @.str.5, i32 noundef 1119, ptr noundef nonnull @.str.148, ptr noundef nonnull @.str.151, ptr noundef %36, i64 noundef %45, ptr noundef nonnull @encode_case_22_dec.data, i64 noundef 2) #4
  %.not59 = icmp eq i32 %46, 0
  br i1 %.not59, label %47, label %.critedge62

.critedge62:                                      ; preds = %39, %44
  br label %47

47:                                               ; preds = %44, %.thread73, %39, %37, %31, %.critedge, %24, %21, %18, %16, %11, %2, %.critedge62
  %.0 = phi i32 [ 1, %.critedge62 ], [ 0, %2 ], [ 0, %11 ], [ 0, %16 ], [ 0, %18 ], [ 0, %21 ], [ 0, %24 ], [ 0, %.critedge ], [ 0, %31 ], [ 0, %37 ], [ 0, %39 ], [ 0, %.thread73 ], [ 0, %44 ]
  call void @llvm.lifetime.end.p0(i64 8, ptr nonnull %4) #4
  call void @llvm.lifetime.end.p0(i64 8, ptr nonnull %3) #4
  ret i32 %.0
}